target datalayout = "e-m:e-p270:32:32-p271:32:32-p272:64:64-i64:64-i128:128-f80:128-n8:16:32:64-S128"
target triple = "x86_64-pc-linux-gnu"

%struct.dt_s_ = type { ptr, ptr, %struct.Dtdata_t, ptr, i32, ptr, ptr, ptr }
%struct.Dtdata_t = type { i32, ptr, %union.anon.4, i32, i32, i32 }
%union.anon.4 = type { ptr }

@strings = internal global ptr null, align 8
@Dtoset = external global ptr, align 8
@stderr = external global ptr, align 8
@.str.41 = private unnamed_addr constant [49 x i8] c"out of memory when trying to allocate %zu bytes\0A\00", align 1
@stringdict = internal global { i32, i32, i32, [4 x i8], ptr, ptr, ptr } { i32 0, i32 0, i32 -1, [4 x i8] zeroinitializer, ptr null, ptr @free, ptr null }, align 8

; Function Attrs: inlinehint nounwind uwtable
define internal ptr @gv_strdup(ptr noundef %0) #3 {
  %2 = alloca ptr, align 8
  %3 = alloca ptr, align 8
  store ptr %0, ptr %2, align 8, !tbaa !9
  call void @llvm.lifetime.start.p0(i64 8, ptr %3) #15
  %4 = load ptr, ptr %2, align 8, !tbaa !9
  %5 = call noalias ptr @strdup(ptr noundef %4) #15
  store ptr %5, ptr %3, align 8, !tbaa !9
  %6 = load ptr, ptr %3, align 8, !tbaa !9
  %7 = icmp eq ptr %6, null
  br i1 %7, label %8, label %14

8:                                                ; preds = %1
  %9 = load ptr, ptr @stderr, align 8, !tbaa !68
  %10 = load ptr, ptr %2, align 8, !tbaa !9
  %11 = call i64 @strlen(ptr noundef %10) #16
  %12 = add i64 %11, 1
  %13 = call i32 (ptr, ptr, ...) @fprintf(ptr noundef %9, ptr noundef @.str.41, i64 noundef %12) #15
  call void @graphviz_exit(i32 noundef 1) #17
  unreachable

14:                                               ; preds = %1
  %15 = load ptr, ptr %3, align 8, !tbaa !9
  call void @llvm.lifetime.end.p0(i64 8, ptr %3) #15
  ret ptr %15
}

; Function Attrs: nounwind uwtable
define zeroext i1 @emit_once(ptr noundef %0) #0 {
  %2 = alloca i1, align 1
  %3 = alloca ptr, align 8
  store ptr %0, ptr %3, align 8, !tbaa !9
  %4 = load ptr, ptr @strings, align 8, !tbaa !227
  %5 = icmp eq ptr %4, null
  br i1 %5, label %6, label %9

6:                                                ; preds = %1
  %7 = load ptr, ptr @Dtoset, align 8, !tbaa !8
  %8 = call ptr @dtopen(ptr noundef @stringdict, ptr noundef %7)
  store ptr %8, ptr @strings, align 8, !tbaa !227
  br label %9

9:                                                ; preds = %6, %1
  %10 = load ptr, ptr @strings, align 8, !tbaa !227
  %11 = getelementptr inbounds nuw %struct.dt_s_, ptr %10, i32 0, i32 0
  %12 = load ptr, ptr %11, align 8, !tbaa !165
  %13 = load ptr, ptr @strings, align 8, !tbaa !227
  %14 = load ptr, ptr %3, align 8, !tbaa !9
  %15 = call ptr %12(ptr noundef %13, ptr noundef %14, i32 noundef 4)
  %16 = icmp ne ptr %15, null
  br i1 %16, label %25, label %17

17:                                               ; preds = %9
  %18 = load ptr, ptr @strings, align 8, !tbaa !227
  %19 = getelementptr inbounds nuw %struct.dt_s_, ptr %18, i32 0, i32 0
  %20 = load ptr, ptr %19, align 8, !tbaa !165
  %21 = load ptr, ptr @strings, align 8, !tbaa !227
  %22 = load ptr, ptr %3, align 8, !tbaa !9
  %23 = call ptr @gv_strdup(ptr noundef %22)
  %24 = call ptr %20(ptr noundef %21, ptr noundef %23, i32 noundef 1)
  store i1 true, ptr %2, align 1
  br label %26

25:                                               ; preds = %9
  store i1 false, ptr %2, align 1
  br label %26

26:                                               ; preds = %25, %17
  %27 = load i1, ptr %2, align 1
  ret i1 %27
}