; Function Attrs: nounwind uwtable
define noundef zeroext i1 @emit_once(ptr noundef %0) local_unnamed_addr #0 {
  %2 = load ptr, ptr @strings, align 8, !tbaa !297
  %3 = icmp eq ptr %2, null
  br i1 %3, label %4, label %7

4:                                                ; preds = %1
  %5 = load ptr, ptr @Dtoset, align 8, !tbaa !124
  %6 = tail call ptr @dtopen(ptr noundef nonnull @stringdict, ptr noundef %5) #27
  store ptr %6, ptr @strings, align 8, !tbaa !297
  br label %7

7:                                                ; preds = %4, %1
  %8 = phi ptr [ %6, %4 ], [ %2, %1 ]
  %9 = load ptr, ptr %8, align 8, !tbaa !175
  %10 = tail call ptr %9(ptr noundef nonnull %8, ptr noundef %0, i32 noundef 4) #27
  %.not = icmp eq ptr %10, null
  br i1 %.not, label %11, label %22

11:                                               ; preds = %7
  %12 = load ptr, ptr @strings, align 8, !tbaa !297
  %13 = load ptr, ptr %12, align 8, !tbaa !175
  %14 = tail call noalias ptr @strdup(ptr noundef readonly %0) #27
  %15 = icmp eq ptr %14, null
  br i1 %15, label %16, label %gv_strdup.exit

16:                                               ; preds = %11
  %17 = load ptr, ptr @stderr, align 8, !tbaa !6
  %18 = tail call i64 @strlen(ptr noundef nonnull readonly dereferenceable(1) %0) #31
  %19 = add i64 %18, 1
  %20 = tail call i32 (ptr, ptr, ...) @fprintf(ptr noundef %17, ptr noundef nonnull @.str.41, i64 noundef %19) #29
  tail call fastcc void @graphviz_exit() #30
  unreachable

gv_strdup.exit:                                   ; preds = %11
  %21 = tail call ptr %13(ptr noundef nonnull %12, ptr noundef nonnull %14, i32 noundef 1) #27
  br label %22

22:                                               ; preds = %7, %gv_strdup.exit
  ret i1 %.not
}